target datalayout = "e-m:e-p270:32:32-p271:32:32-p272:64:64-i64:64-i128:128-f80:128-n8:16:32:64-S128"
target triple = "x86_64-pc-linux-gnu"

%struct.slurm_step_id_msg = type { i64, i32, i32, i32 }

@.str = private unnamed_addr constant [39 x i8] c"%s: protocol_version %hu not supported\00", align 1
@__func__.unpack_step_id_members = private unnamed_addr constant [23 x i8] c"unpack_step_id_members\00", align 1

; Function Attrs: nounwind uwtable
define dso_local i32 @unpack_step_id_members(ptr noundef %0, ptr noundef %1, i16 noundef zeroext %2) #0 {
  %4 = alloca i32, align 4
  %5 = alloca ptr, align 8
  %6 = alloca ptr, align 8
  %7 = alloca i16, align 2
  store ptr %0, ptr %5, align 8
  store ptr %1, ptr %6, align 8
  store i16 %2, ptr %7, align 2
  %8 = load i16, ptr %7, align 2
  %9 = zext i16 %8 to i32
  %10 = icmp sge i32 %9, 10752
  br i1 %10, label %11, label %48

11:                                               ; preds = %3
  br label %12

12:                                               ; preds = %11
  %13 = load ptr, ptr %5, align 8
  %14 = getelementptr inbounds nuw %struct.slurm_step_id_msg, ptr %13, i32 0, i32 0
  %15 = load ptr, ptr %6, align 8
  %16 = call i32 @unpack64(ptr noundef %14, ptr noundef %15)
  %17 = icmp ne i32 %16, 0
  br i1 %17, label %18, label %19

18:                                               ; preds = %12
  br label %88

19:                                               ; preds = %12
  br label %20

20:                                               ; preds = %19
  br label %21

21:                                               ; preds = %20
  %22 = load ptr, ptr %5, align 8
  %23 = getelementptr inbounds nuw %struct.slurm_step_id_msg, ptr %22, i32 0, i32 1
  %24 = load ptr, ptr %6, align 8
  %25 = call i32 @unpack32(ptr noundef %23, ptr noundef %24)
  %26 = icmp ne i32 %25, 0
  br i1 %26, label %27, label %28

27:                                               ; preds = %21
  br label %88

28:                                               ; preds = %21
  br label %29

29:                                               ; preds = %28
  br label %30

30:                                               ; preds = %29
  %31 = load ptr, ptr %5, align 8
  %32 = getelementptr inbounds nuw %struct.slurm_step_id_msg, ptr %31, i32 0, i32 3
  %33 = load ptr, ptr %6, align 8
  %34 = call i32 @unpack32(ptr noundef %32, ptr noundef %33)
  %35 = icmp ne i32 %34, 0
  br i1 %35, label %36, label %37

36:                                               ; preds = %30
  br label %88

37:                                               ; preds = %30
  br label %38

38:                                               ; preds = %37
  br label %39

39:                                               ; preds = %38
  %40 = load ptr, ptr %5, align 8
  %41 = getelementptr inbounds nuw %struct.slurm_step_id_msg, ptr %40, i32 0, i32 2
  %42 = load ptr, ptr %6, align 8
  %43 = call i32 @unpack32(ptr noundef %41, ptr noundef %42)
  %44 = icmp ne i32 %43, 0
  br i1 %44, label %45, label %46

45:                                               ; preds = %39
  br label %88

46:                                               ; preds = %39
  br label %47

47:                                               ; preds = %46
  br label %87

48:                                               ; preds = %3
  %49 = load i16, ptr %7, align 2
  %50 = zext i16 %49 to i32
  %51 = icmp sge i32 %50, 10240
  br i1 %51, label %52, label %82

52:                                               ; preds = %48
  %53 = load ptr, ptr %5, align 8
  %54 = getelementptr inbounds nuw %struct.slurm_step_id_msg, ptr %53, i32 0, i32 0
  store i64 0, ptr %54, align 8
  br label %55

55:                                               ; preds = %52
  %56 = load ptr, ptr %5, align 8
  %57 = getelementptr inbounds nuw %struct.slurm_step_id_msg, ptr %56, i32 0, i32 1
  %58 = load ptr, ptr %6, align 8
  %59 = call i32 @unpack32(ptr noundef %57, ptr noundef %58)
  %60 = icmp ne i32 %59, 0
  br i1 %60, label %61, label %62

61:                                               ; preds = %55
  br label %88

62:                                               ; preds = %55
  br label %63

63:                                               ; preds = %62
  br label %64

64:                                               ; preds = %63
  %65 = load ptr, ptr %5, align 8
  %66 = getelementptr inbounds nuw %struct.slurm_step_id_msg, ptr %65, i32 0, i32 3
  %67 = load ptr, ptr %6, align 8
  %68 = call i32 @unpack32(ptr noundef %66, ptr noundef %67)
  %69 = icmp ne i32 %68, 0
  br i1 %69, label %70, label %71

70:                                               ; preds = %64
  br label %88

71:                                               ; preds = %64
  br label %72

72:                                               ; preds = %71
  br label %73

73:                                               ; preds = %72
  %74 = load ptr, ptr %5, align 8
  %75 = getelementptr inbounds nuw %struct.slurm_step_id_msg, ptr %74, i32 0, i32 2
  %76 = load ptr, ptr %6, align 8
  %77 = call i32 @unpack32(ptr noundef %75, ptr noundef %76)
  %78 = icmp ne i32 %77, 0
  br i1 %78, label %79, label %80

79:                                               ; preds = %73
  br label %88

80:                                               ; preds = %73
  br label %81

81:                                               ; preds = %80
  br label %86

82:                                               ; preds = %48
  %83 = load i16, ptr %7, align 2
  %84 = zext i16 %83 to i32
  %85 = call i32 (ptr, ...) @error(ptr noundef @.str, ptr noundef @__func__.unpack_step_id_members, i32 noundef %84)
  br label %88

86:                                               ; preds = %81
  br label %87

87:                                               ; preds = %86, %47
  store i32 0, ptr %4, align 4
  br label %89

88:                                               ; preds = %82, %79, %70, %61, %45, %36, %27, %18
  store i32 -1, ptr %4, align 4
  br label %89

89:                                               ; preds = %88, %87
  %90 = load i32, ptr %4, align 4
  ret i32 %90
}