; Function Attrs: nounwind uwtable
define dso_local range(i32 -1, 1) i32 @unpack_step_id_members(ptr noundef %0, ptr noundef %1, i16 noundef zeroext %2) local_unnamed_addr #0 {
  %4 = zext i16 %2 to i32
  %5 = icmp ugt i16 %2, 10751
  br i1 %5, label %6, label %17

6:                                                ; preds = %3
  %7 = tail call i32 @unpack64(ptr noundef %0, ptr noundef %1) #7
  %.not21 = icmp eq i32 %7, 0
  br i1 %.not21, label %8, label %30

8:                                                ; preds = %6
  %9 = getelementptr inbounds nuw i8, ptr %0, i64 8
  %10 = tail call i32 @unpack32(ptr noundef nonnull %9, ptr noundef %1) #7
  %.not22 = icmp eq i32 %10, 0
  br i1 %.not22, label %11, label %30

11:                                               ; preds = %8
  %12 = getelementptr inbounds nuw i8, ptr %0, i64 16
  %13 = tail call i32 @unpack32(ptr noundef nonnull %12, ptr noundef %1) #7
  %.not23 = icmp eq i32 %13, 0
  br i1 %.not23, label %14, label %30

14:                                               ; preds = %11
  %15 = getelementptr inbounds nuw i8, ptr %0, i64 12
  %16 = tail call i32 @unpack32(ptr noundef nonnull %15, ptr noundef %1) #7
  %.not24 = icmp eq i32 %16, 0
  br i1 %.not24, label %31, label %30

17:                                               ; preds = %3
  %18 = icmp samesign ugt i16 %2, 10239
  br i1 %18, label %19, label %28

19:                                               ; preds = %17
  store i64 0, ptr %0, align 8
  %20 = getelementptr inbounds nuw i8, ptr %0, i64 8
  %21 = tail call i32 @unpack32(ptr noundef nonnull %20, ptr noundef %1) #7
  %.not = icmp eq i32 %21, 0
  br i1 %.not, label %22, label %30

22:                                               ; preds = %19
  %23 = getelementptr inbounds nuw i8, ptr %0, i64 16
  %24 = tail call i32 @unpack32(ptr noundef nonnull %23, ptr noundef %1) #7
  %.not19 = icmp eq i32 %24, 0
  br i1 %.not19, label %25, label %30

25:                                               ; preds = %22
  %26 = getelementptr inbounds nuw i8, ptr %0, i64 12
  %27 = tail call i32 @unpack32(ptr noundef nonnull %26, ptr noundef %1) #7
  %.not20 = icmp eq i32 %27, 0
  br i1 %.not20, label %31, label %30

28:                                               ; preds = %17
  %29 = tail call i32 (ptr, ...) @error(ptr noundef nonnull @.str, ptr noundef nonnull @__func__.unpack_step_id_members, i32 noundef %4) #7
  br label %30

30:                                               ; preds = %25, %22, %19, %14, %11, %8, %6, %28
  br label %31

31:                                               ; preds = %14, %25, %30
  %.0 = phi i32 [ -1, %30 ], [ 0, %25 ], [ 0, %14 ]
  ret i32 %.0
}